; Function Attrs: nounwind uwtable
define ptr @l___private_Lean_Meta_Tactic_Grind_Arith_CommRing_RingId_0__Lean_Meta_Grind_Arith_CommRing_getAddFn___lambda__1(ptr noundef %0, ptr noundef %1, ptr noundef %2, ptr noundef readnone captures(none) %3, ptr noundef %4, ptr noundef %5, ptr noundef %6, ptr noundef %7, ptr noundef %8, ptr noundef %9, ptr noundef %10, ptr noundef %11, ptr noundef %12) local_unnamed_addr #1 {
  %14 = load ptr, ptr @l___private_Lean_Meta_Tactic_Grind_Arith_CommRing_RingId_0__Lean_Meta_Grind_Arith_CommRing_getAddFn___lambda__1___closed__3, align 8, !tbaa !9
  %15 = tail call ptr @l_Lean_Expr_const___override(ptr noundef %14, ptr noundef %0) #4
  %16 = ptrtoint ptr %1 to i64
  %17 = and i64 %16, 1
  %.not.i = icmp eq i64 %17, 0
  br i1 %.not.i, label %18, label %lean_inc_n.exit

18:                                               ; preds = %13
  %.val.i.i = load i32, ptr %1, align 4, !tbaa !4
  %19 = icmp sgt i32 %.val.i.i, 0
  br i1 %19, label %20, label %22, !prof !11

20:                                               ; preds = %18
  %21 = add nuw i32 %.val.i.i, 2
  store i32 %21, ptr %1, align 4, !tbaa !4
  br label %lean_inc_n.exit

22:                                               ; preds = %18
  %.not.i.i = icmp eq i32 %.val.i.i, 0
  br i1 %.not.i.i, label %lean_inc_n.exit, label %23

23:                                               ; preds = %22
  tail call void @lean_inc_ref_n_cold(ptr noundef nonnull %1, i32 noundef 2) #4
  br label %lean_inc_n.exit

lean_inc_n.exit:                                  ; preds = %13, %20, %22, %23
  %24 = tail call ptr @l_Lean_mkApp4(ptr noundef %15, ptr noundef %1, ptr noundef %1, ptr noundef %1, ptr noundef %2) #4
  %25 = tail call ptr @l___private_Lean_Meta_Tactic_Grind_Arith_CommRing_RingId_0__Lean_Meta_Grind_Arith_CommRing_internalizeFn(ptr noundef %24, ptr noundef %4, ptr noundef %5, ptr noundef %6, ptr noundef %7, ptr noundef %8, ptr noundef %9, ptr noundef %10, ptr noundef %11, ptr noundef %12)
  ret ptr %25
}